target datalayout = "e-m:e-p270:32:32-p271:32:32-p272:64:64-i64:64-i128:128-f80:128-n8:16:32:64-S128"
target triple = "x86_64-pc-linux-gnu"

%"class.pxrInternal_v0_24__pxrReserved__::GfMatrix4f" = type { %"class.pxrInternal_v0_24__pxrReserved__::GfMatrixData" }
%"class.pxrInternal_v0_24__pxrReserved__::GfMatrixData" = type { [16 x float] }
%"class.pxrInternal_v0_24__pxrReserved__::GfVec3f" = type { [3 x float] }
%"class.pxrInternal_v0_24__pxrReserved__::GfQuatf" = type { %"class.pxrInternal_v0_24__pxrReserved__::GfVec3f", float }

; Function Attrs: mustprogress nounwind uwtable
define linkonce_odr noundef ptr @_ZN32pxrInternal_v0_24__pxrReserved__12GfMatrixDataIfLi4ELi4EEixEi(ptr noundef nonnull align 4 dereferenceable(64) %0, i32 noundef %1) #2 comdat align 2 {
  %3 = alloca ptr, align 8
  %4 = alloca i32, align 4
  store ptr %0, ptr %3, align 8
  store i32 %1, ptr %4, align 4
  %5 = load ptr, ptr %3, align 8
  %6 = getelementptr inbounds nuw %"class.pxrInternal_v0_24__pxrReserved__::GfMatrixData", ptr %5, i32 0, i32 0
  %7 = getelementptr inbounds [16 x float], ptr %6, i64 0, i64 0
  %8 = load i32, ptr %4, align 4
  %9 = mul nsw i32 %8, 4
  %10 = sext i32 %9 to i64
  %11 = getelementptr inbounds float, ptr %7, i64 %10
  ret ptr %11
}

; Function Attrs: mustprogress nounwind uwtable
define linkonce_odr noundef nonnull align 4 dereferenceable(4) ptr @_ZNK32pxrInternal_v0_24__pxrReserved__7GfVec3fixEm(ptr noundef nonnull align 4 dereferenceable(12) %0, i64 noundef %1) #2 comdat align 2 {
  %3 = alloca ptr, align 8
  %4 = alloca i64, align 8
  store ptr %0, ptr %3, align 8
  store i64 %1, ptr %4, align 8
  %5 = load ptr, ptr %3, align 8
  %6 = getelementptr inbounds nuw %"class.pxrInternal_v0_24__pxrReserved__::GfVec3f", ptr %5, i32 0, i32 0
  %7 = load i64, ptr %4, align 8
  %8 = getelementptr inbounds [3 x float], ptr %6, i64 0, i64 %7
  ret ptr %8
}

; Function Attrs: mustprogress uwtable
define void @_ZN32pxrInternal_v0_24__pxrReserved__10GfMatrix4f18_SetRotateFromQuatEfRKNS_7GfVec3fE(ptr noundef nonnull align 4 dereferenceable(64) %0, float noundef %1, ptr noundef nonnull align 4 dereferenceable(12) %2) #0 align 2 {
  %4 = alloca ptr, align 8
  %5 = alloca float, align 4
  %6 = alloca ptr, align 8
  store ptr %0, ptr %4, align 8
  store float %1, ptr %5, align 4
  store ptr %2, ptr %6, align 8
  %7 = load ptr, ptr %4, align 8
  %8 = load ptr, ptr %6, align 8
  %9 = call noundef nonnull align 4 dereferenceable(4) ptr @_ZNK32pxrInternal_v0_24__pxrReserved__7GfVec3fixEm(ptr noundef nonnull align 4 dereferenceable(12) %8, i64 noundef 1)
  %10 = load float, ptr %9, align 4
  %11 = load ptr, ptr %6, align 8
  %12 = call noundef nonnull align 4 dereferenceable(4) ptr @_ZNK32pxrInternal_v0_24__pxrReserved__7GfVec3fixEm(ptr noundef nonnull align 4 dereferenceable(12) %11, i64 noundef 1)
  %13 = load float, ptr %12, align 4
  %14 = load ptr, ptr %6, align 8
  %15 = call noundef nonnull align 4 dereferenceable(4) ptr @_ZNK32pxrInternal_v0_24__pxrReserved__7GfVec3fixEm(ptr noundef nonnull align 4 dereferenceable(12) %14, i64 noundef 2)
  %16 = load float, ptr %15, align 4
  %17 = load ptr, ptr %6, align 8
  %18 = call noundef nonnull align 4 dereferenceable(4) ptr @_ZNK32pxrInternal_v0_24__pxrReserved__7GfVec3fixEm(ptr noundef nonnull align 4 dereferenceable(12) %17, i64 noundef 2)
  %19 = load float, ptr %18, align 4
  %20 = fmul float %16, %19
  %21 = call float @llvm.fmuladd.f32(float %10, float %13, float %20)
  %22 = fpext float %21 to double
  %23 = call double @llvm.fmuladd.f64(double -2.000000e+00, double %22, double 1.000000e+00)
  %24 = fptrunc double %23 to float
  %25 = getelementptr inbounds nuw %"class.pxrInternal_v0_24__pxrReserved__::GfMatrix4f", ptr %7, i32 0, i32 0
  %26 = call noundef ptr @_ZN32pxrInternal_v0_24__pxrReserved__12GfMatrixDataIfLi4ELi4EEixEi(ptr noundef nonnull align 4 dereferenceable(64) %25, i32 noundef 0)
  %27 = getelementptr inbounds float, ptr %26, i64 0
  store float %24, ptr %27, align 4
  %28 = load ptr, ptr %6, align 8
  %29 = call noundef nonnull align 4 dereferenceable(4) ptr @_ZNK32pxrInternal_v0_24__pxrReserved__7GfVec3fixEm(ptr noundef nonnull align 4 dereferenceable(12) %28, i64 noundef 0)
  %30 = load float, ptr %29, align 4
  %31 = load ptr, ptr %6, align 8
  %32 = call noundef nonnull align 4 dereferenceable(4) ptr @_ZNK32pxrInternal_v0_24__pxrReserved__7GfVec3fixEm(ptr noundef nonnull align 4 dereferenceable(12) %31, i64 noundef 1)
  %33 = load float, ptr %32, align 4
  %34 = load ptr, ptr %6, align 8
  %35 = call noundef nonnull align 4 dereferenceable(4) ptr @_ZNK32pxrInternal_v0_24__pxrReserved__7GfVec3fixEm(ptr noundef nonnull align 4 dereferenceable(12) %34, i64 noundef 2)
  %36 = load float, ptr %35, align 4
  %37 = load float, ptr %5, align 4
  %38 = fmul float %36, %37
  %39 = call float @llvm.fmuladd.f32(float %30, float %33, float %38)
  %40 = fpext float %39 to double
  %41 = fmul double 2.000000e+00, %40
  %42 = fptrunc double %41 to float
  %43 = getelementptr inbounds nuw %"class.pxrInternal_v0_24__pxrReserved__::GfMatrix4f", ptr %7, i32 0, i32 0
  %44 = call noundef ptr @_ZN32pxrInternal_v0_24__pxrReserved__12GfMatrixDataIfLi4ELi4EEixEi(ptr noundef nonnull align 4 dereferenceable(64) %43, i32 noundef 0)
  %45 = getelementptr inbounds float, ptr %44, i64 1
  store float %42, ptr %45, align 4
  %46 = load ptr, ptr %6, align 8
  %47 = call noundef nonnull align 4 dereferenceable(4) ptr @_ZNK32pxrInternal_v0_24__pxrReserved__7GfVec3fixEm(ptr noundef nonnull align 4 dereferenceable(12) %46, i64 noundef 2)
  %48 = load float, ptr %47, align 4
  %49 = load ptr, ptr %6, align 8
  %50 = call noundef nonnull align 4 dereferenceable(4) ptr @_ZNK32pxrInternal_v0_24__pxrReserved__7GfVec3fixEm(ptr noundef nonnull align 4 dereferenceable(12) %49, i64 noundef 0)
  %51 = load float, ptr %50, align 4
  %52 = load ptr, ptr %6, align 8
  %53 = call noundef nonnull align 4 dereferenceable(4) ptr @_ZNK32pxrInternal_v0_24__pxrReserved__7GfVec3fixEm(ptr noundef nonnull align 4 dereferenceable(12) %52, i64 noundef 1)
  %54 = load float, ptr %53, align 4
  %55 = load float, ptr %5, align 4
  %56 = fmul float %54, %55
  %57 = fneg float %56
  %58 = call float @llvm.fmuladd.f32(float %48, float %51, float %57)
  %59 = fpext float %58 to double
  %60 = fmul double 2.000000e+00, %59
  %61 = fptrunc double %60 to float
  %62 = getelementptr inbounds nuw %"class.pxrInternal_v0_24__pxrReserved__::GfMatrix4f", ptr %7, i32 0, i32 0
  %63 = call noundef ptr @_ZN32pxrInternal_v0_24__pxrReserved__12GfMatrixDataIfLi4ELi4EEixEi(ptr noundef nonnull align 4 dereferenceable(64) %62, i32 noundef 0)
  %64 = getelementptr inbounds float, ptr %63, i64 2
  store float %61, ptr %64, align 4
  %65 = load ptr, ptr %6, align 8
  %66 = call noundef nonnull align 4 dereferenceable(4) ptr @_ZNK32pxrInternal_v0_24__pxrReserved__7GfVec3fixEm(ptr noundef nonnull align 4 dereferenceable(12) %65, i64 noundef 0)
  %67 = load float, ptr %66, align 4
  %68 = load ptr, ptr %6, align 8
  %69 = call noundef nonnull align 4 dereferenceable(4) ptr @_ZNK32pxrInternal_v0_24__pxrReserved__7GfVec3fixEm(ptr noundef nonnull align 4 dereferenceable(12) %68, i64 noundef 1)
  %70 = load float, ptr %69, align 4
  %71 = load ptr, ptr %6, align 8
  %72 = call noundef nonnull align 4 dereferenceable(4) ptr @_ZNK32pxrInternal_v0_24__pxrReserved__7GfVec3fixEm(ptr noundef nonnull align 4 dereferenceable(12) %71, i64 noundef 2)
  %73 = load float, ptr %72, align 4
  %74 = load float, ptr %5, align 4
  %75 = fmul float %73, %74
  %76 = fneg float %75
  %77 = call float @llvm.fmuladd.f32(float %67, float %70, float %76)
  %78 = fpext float %77 to double
  %79 = fmul double 2.000000e+00, %78
  %80 = fptrunc double %79 to float
  %81 = getelementptr inbounds nuw %"class.pxrInternal_v0_24__pxrReserved__::GfMatrix4f", ptr %7, i32 0, i32 0
  %82 = call noundef ptr @_ZN32pxrInternal_v0_24__pxrReserved__12GfMatrixDataIfLi4ELi4EEixEi(ptr noundef nonnull align 4 dereferenceable(64) %81, i32 noundef 1)
  %83 = getelementptr inbounds float, ptr %82, i64 0
  store float %80, ptr %83, align 4
  %84 = load ptr, ptr %6, align 8
  %85 = call noundef nonnull align 4 dereferenceable(4) ptr @_ZNK32pxrInternal_v0_24__pxrReserved__7GfVec3fixEm(ptr noundef nonnull align 4 dereferenceable(12) %84, i64 noundef 2)
  %86 = load float, ptr %85, align 4
  %87 = load ptr, ptr %6, align 8
  %88 = call noundef nonnull align 4 dereferenceable(4) ptr @_ZNK32pxrInternal_v0_24__pxrReserved__7GfVec3fixEm(ptr noundef nonnull align 4 dereferenceable(12) %87, i64 noundef 2)
  %89 = load float, ptr %88, align 4
  %90 = load ptr, ptr %6, align 8
  %91 = call noundef nonnull align 4 dereferenceable(4) ptr @_ZNK32pxrInternal_v0_24__pxrReserved__7GfVec3fixEm(ptr noundef nonnull align 4 dereferenceable(12) %90, i64 noundef 0)
  %92 = load float, ptr %91, align 4
  %93 = load ptr, ptr %6, align 8
  %94 = call noundef nonnull align 4 dereferenceable(4) ptr @_ZNK32pxrInternal_v0_24__pxrReserved__7GfVec3fixEm(ptr noundef nonnull align 4 dereferenceable(12) %93, i64 noundef 0)
  %95 = load float, ptr %94, align 4
  %96 = fmul float %92, %95
  %97 = call float @llvm.fmuladd.f32(float %86, float %89, float %96)
  %98 = fpext float %97 to double
  %99 = call double @llvm.fmuladd.f64(double -2.000000e+00, double %98, double 1.000000e+00)
  %100 = fptrunc double %99 to float
  %101 = getelementptr inbounds nuw %"class.pxrInternal_v0_24__pxrReserved__::GfMatrix4f", ptr %7, i32 0, i32 0
  %102 = call noundef ptr @_ZN32pxrInternal_v0_24__pxrReserved__12GfMatrixDataIfLi4ELi4EEixEi(ptr noundef nonnull align 4 dereferenceable(64) %101, i32 noundef 1)
  %103 = getelementptr inbounds float, ptr %102, i64 1
  store float %100, ptr %103, align 4
  %104 = load ptr, ptr %6, align 8
  %105 = call noundef nonnull align 4 dereferenceable(4) ptr @_ZNK32pxrInternal_v0_24__pxrReserved__7GfVec3fixEm(ptr noundef nonnull align 4 dereferenceable(12) %104, i64 noundef 1)
  %106 = load float, ptr %105, align 4
  %107 = load ptr, ptr %6, align 8
  %108 = call noundef nonnull align 4 dereferenceable(4) ptr @_ZNK32pxrInternal_v0_24__pxrReserved__7GfVec3fixEm(ptr noundef nonnull align 4 dereferenceable(12) %107, i64 noundef 2)
  %109 = load float, ptr %108, align 4
  %110 = load ptr, ptr %6, align 8
  %111 = call noundef nonnull align 4 dereferenceable(4) ptr @_ZNK32pxrInternal_v0_24__pxrReserved__7GfVec3fixEm(ptr noundef nonnull align 4 dereferenceable(12) %110, i64 noundef 0)
  %112 = load float, ptr %111, align 4
  %113 = load float, ptr %5, align 4
  %114 = fmul float %112, %113
  %115 = call float @llvm.fmuladd.f32(float %106, float %109, float %114)
  %116 = fpext float %115 to double
  %117 = fmul double 2.000000e+00, %116
  %118 = fptrunc double %117 to float
  %119 = getelementptr inbounds nuw %"class.pxrInternal_v0_24__pxrReserved__::GfMatrix4f", ptr %7, i32 0, i32 0
  %120 = call noundef ptr @_ZN32pxrInternal_v0_24__pxrReserved__12GfMatrixDataIfLi4ELi4EEixEi(ptr noundef nonnull align 4 dereferenceable(64) %119, i32 noundef 1)
  %121 = getelementptr inbounds float, ptr %120, i64 2
  store float %118, ptr %121, align 4
  %122 = load ptr, ptr %6, align 8
  %123 = call noundef nonnull align 4 dereferenceable(4) ptr @_ZNK32pxrInternal_v0_24__pxrReserved__7GfVec3fixEm(ptr noundef nonnull align 4 dereferenceable(12) %122, i64 noundef 2)
  %124 = load float, ptr %123, align 4
  %125 = load ptr, ptr %6, align 8
  %126 = call noundef nonnull align 4 dereferenceable(4) ptr @_ZNK32pxrInternal_v0_24__pxrReserved__7GfVec3fixEm(ptr noundef nonnull align 4 dereferenceable(12) %125, i64 noundef 0)
  %127 = load float, ptr %126, align 4
  %128 = load ptr, ptr %6, align 8
  %129 = call noundef nonnull align 4 dereferenceable(4) ptr @_ZNK32pxrInternal_v0_24__pxrReserved__7GfVec3fixEm(ptr noundef nonnull align 4 dereferenceable(12) %128, i64 noundef 1)
  %130 = load float, ptr %129, align 4
  %131 = load float, ptr %5, align 4
  %132 = fmul float %130, %131
  %133 = call float @llvm.fmuladd.f32(float %124, float %127, float %132)
  %134 = fpext float %133 to double
  %135 = fmul double 2.000000e+00, %134
  %136 = fptrunc double %135 to float
  %137 = getelementptr inbounds nuw %"class.pxrInternal_v0_24__pxrReserved__::GfMatrix4f", ptr %7, i32 0, i32 0
  %138 = call noundef ptr @_ZN32pxrInternal_v0_24__pxrReserved__12GfMatrixDataIfLi4ELi4EEixEi(ptr noundef nonnull align 4 dereferenceable(64) %137, i32 noundef 2)
  %139 = getelementptr inbounds float, ptr %138, i64 0
  store float %136, ptr %139, align 4
  %140 = load ptr, ptr %6, align 8
  %141 = call noundef nonnull align 4 dereferenceable(4) ptr @_ZNK32pxrInternal_v0_24__pxrReserved__7GfVec3fixEm(ptr noundef nonnull align 4 dereferenceable(12) %140, i64 noundef 1)
  %142 = load float, ptr %141, align 4
  %143 = load ptr, ptr %6, align 8
  %144 = call noundef nonnull align 4 dereferenceable(4) ptr @_ZNK32pxrInternal_v0_24__pxrReserved__7GfVec3fixEm(ptr noundef nonnull align 4 dereferenceable(12) %143, i64 noundef 2)
  %145 = load float, ptr %144, align 4
  %146 = load ptr, ptr %6, align 8
  %147 = call noundef nonnull align 4 dereferenceable(4) ptr @_ZNK32pxrInternal_v0_24__pxrReserved__7GfVec3fixEm(ptr noundef nonnull align 4 dereferenceable(12) %146, i64 noundef 0)
  %148 = load float, ptr %147, align 4
  %149 = load float, ptr %5, align 4
  %150 = fmul float %148, %149
  %151 = fneg float %150
  %152 = call float @llvm.fmuladd.f32(float %142, float %145, float %151)
  %153 = fpext float %152 to double
  %154 = fmul double 2.000000e+00, %153
  %155 = fptrunc double %154 to float
  %156 = getelementptr inbounds nuw %"class.pxrInternal_v0_24__pxrReserved__::GfMatrix4f", ptr %7, i32 0, i32 0
  %157 = call noundef ptr @_ZN32pxrInternal_v0_24__pxrReserved__12GfMatrixDataIfLi4ELi4EEixEi(ptr noundef nonnull align 4 dereferenceable(64) %156, i32 noundef 2)
  %158 = getelementptr inbounds float, ptr %157, i64 1
  store float %155, ptr %158, align 4
  %159 = load ptr, ptr %6, align 8
  %160 = call noundef nonnull align 4 dereferenceable(4) ptr @_ZNK32pxrInternal_v0_24__pxrReserved__7GfVec3fixEm(ptr noundef nonnull align 4 dereferenceable(12) %159, i64 noundef 1)
  %161 = load float, ptr %160, align 4
  %162 = load ptr, ptr %6, align 8
  %163 = call noundef nonnull align 4 dereferenceable(4) ptr @_ZNK32pxrInternal_v0_24__pxrReserved__7GfVec3fixEm(ptr noundef nonnull align 4 dereferenceable(12) %162, i64 noundef 1)
  %164 = load float, ptr %163, align 4
  %165 = load ptr, ptr %6, align 8
  %166 = call noundef nonnull align 4 dereferenceable(4) ptr @_ZNK32pxrInternal_v0_24__pxrReserved__7GfVec3fixEm(ptr noundef nonnull align 4 dereferenceable(12) %165, i64 noundef 0)
  %167 = load float, ptr %166, align 4
  %168 = load ptr, ptr %6, align 8
  %169 = call noundef nonnull align 4 dereferenceable(4) ptr @_ZNK32pxrInternal_v0_24__pxrReserved__7GfVec3fixEm(ptr noundef nonnull align 4 dereferenceable(12) %168, i64 noundef 0)
  %170 = load float, ptr %169, align 4
  %171 = fmul float %167, %170
  %172 = call float @llvm.fmuladd.f32(float %161, float %164, float %171)
  %173 = fpext float %172 to double
  %174 = call double @llvm.fmuladd.f64(double -2.000000e+00, double %173, double 1.000000e+00)
  %175 = fptrunc double %174 to float
  %176 = getelementptr inbounds nuw %"class.pxrInternal_v0_24__pxrReserved__::GfMatrix4f", ptr %7, i32 0, i32 0
  %177 = call noundef ptr @_ZN32pxrInternal_v0_24__pxrReserved__12GfMatrixDataIfLi4ELi4EEixEi(ptr noundef nonnull align 4 dereferenceable(64) %176, i32 noundef 2)
  %178 = getelementptr inbounds float, ptr %177, i64 2
  store float %175, ptr %178, align 4
  ret void
}

; Function Attrs: mustprogress nounwind uwtable
define linkonce_odr noundef nonnull align 4 dereferenceable(12) ptr @_ZNK32pxrInternal_v0_24__pxrReserved__7GfQuatf12GetImaginaryEv(ptr noundef nonnull align 4 dereferenceable(16) %0) #2 comdat align 2 {
  %2 = alloca ptr, align 8
  store ptr %0, ptr %2, align 8
  %3 = load ptr, ptr %2, align 8
  %4 = getelementptr inbounds nuw %"class.pxrInternal_v0_24__pxrReserved__::GfQuatf", ptr %3, i32 0, i32 0
  ret ptr %4
}

; Function Attrs: mustprogress nounwind uwtable
define linkonce_odr noundef float @_ZNK32pxrInternal_v0_24__pxrReserved__7GfQuatf7GetRealEv(ptr noundef nonnull align 4 dereferenceable(16) %0) #2 comdat align 2 {
  %2 = alloca ptr, align 8
  store ptr %0, ptr %2, align 8
  %3 = load ptr, ptr %2, align 8
  %4 = getelementptr inbounds nuw %"class.pxrInternal_v0_24__pxrReserved__::GfQuatf", ptr %3, i32 0, i32 1
  %5 = load float, ptr %4, align 4
  ret float %5
}

; Function Attrs: mustprogress uwtable
define noundef nonnull align 4 dereferenceable(64) ptr @_ZN32pxrInternal_v0_24__pxrReserved__10GfMatrix4f13SetRotateOnlyERKNS_7GfQuatfE(ptr noundef nonnull align 4 dereferenceable(64) %0, ptr noundef nonnull align 4 dereferenceable(16) %1) #0 align 2 {
  %3 = alloca ptr, align 8
  %4 = alloca ptr, align 8
  store ptr %0, ptr %3, align 8
  store ptr %1, ptr %4, align 8
  %5 = load ptr, ptr %3, align 8
  %6 = load ptr, ptr %4, align 8
  %7 = call noundef float @_ZNK32pxrInternal_v0_24__pxrReserved__7GfQuatf7GetRealEv(ptr noundef nonnull align 4 dereferenceable(16) %6)
  %8 = load ptr, ptr %4, align 8
  %9 = call noundef nonnull align 4 dereferenceable(12) ptr @_ZNK32pxrInternal_v0_24__pxrReserved__7GfQuatf12GetImaginaryEv(ptr noundef nonnull align 4 dereferenceable(16) %8)
  call void @_ZN32pxrInternal_v0_24__pxrReserved__10GfMatrix4f18_SetRotateFromQuatEfRKNS_7GfVec3fE(ptr noundef nonnull align 4 dereferenceable(64) %5, float noundef %7, ptr noundef nonnull align 4 dereferenceable(12) %9)
  ret ptr %5
}